; Function Attrs: nounwind uwtable
define ptr @l_Lean_Expr_natAdd_x3f(ptr noundef %0) local_unnamed_addr #0 {
  %2 = load ptr, ptr @l_Lean_Expr_natAdd_x3f___closed__3, align 8, !tbaa !4
  %3 = tail call zeroext i8 @l_Lean_Expr_isAppOfArity(ptr noundef %0, ptr noundef %2, ptr noundef nonnull inttoptr (i64 5 to ptr)) #4
  %4 = icmp eq i8 %3, 0
  br i1 %4, label %29, label %5

5:                                                ; preds = %1
  %6 = tail call ptr @l_Lean_Expr_appFn_x21(ptr noundef %0) #4
  %7 = tail call ptr @l_Lean_Expr_appArg_x21(ptr noundef %6) #4
  %8 = ptrtoint ptr %6 to i64
  %9 = and i64 %8, 1
  %.not = icmp eq i64 %9, 0
  br i1 %.not, label %10, label %lean_dec.exit

10:                                               ; preds = %5
  %11 = load i32, ptr %6, align 4, !tbaa !8
  %12 = icmp sgt i32 %11, 1
  br i1 %12, label %13, label %15, !prof !11

13:                                               ; preds = %10
  %14 = add nsw i32 %11, -1
  store i32 %14, ptr %6, align 4, !tbaa !8
  br label %lean_dec.exit

15:                                               ; preds = %10
  %.not.i = icmp eq i32 %11, 0
  br i1 %.not.i, label %lean_dec.exit, label %16

16:                                               ; preds = %15
  tail call void @lean_dec_ref_cold(ptr noundef nonnull %6) #4
  br label %lean_dec.exit

lean_dec.exit:                                    ; preds = %16, %15, %13, %5
  %17 = tail call ptr @l_Lean_Expr_appArg_x21(ptr noundef %0) #4
  tail call void @lean_inc_heartbeat() #4
  %18 = tail call noalias ptr @mi_malloc_small(i64 noundef 24) #4
  %19 = icmp eq ptr %18, null
  br i1 %19, label %20, label %lean_alloc_ctor.exit

20:                                               ; preds = %lean_dec.exit
  tail call void @lean_internal_panic_out_of_memory() #5
  unreachable

lean_alloc_ctor.exit:                             ; preds = %lean_dec.exit
  %21 = getelementptr inbounds nuw i8, ptr %18, i64 4
  store i32 1, ptr %18, align 4, !tbaa !8
  store i32 131096, ptr %21, align 4
  %22 = getelementptr inbounds nuw i8, ptr %18, i64 8
  store ptr %7, ptr %22, align 8, !tbaa !4
  %23 = getelementptr inbounds nuw i8, ptr %18, i64 16
  store ptr %17, ptr %23, align 8, !tbaa !4
  tail call void @lean_inc_heartbeat() #4
  %24 = tail call noalias ptr @mi_malloc_small(i64 noundef 16) #4
  %25 = icmp eq ptr %24, null
  br i1 %25, label %26, label %lean_alloc_ctor.exit16

26:                                               ; preds = %lean_alloc_ctor.exit
  tail call void @lean_internal_panic_out_of_memory() #5
  unreachable

lean_alloc_ctor.exit16:                           ; preds = %lean_alloc_ctor.exit
  %27 = getelementptr inbounds nuw i8, ptr %24, i64 4
  store i32 1, ptr %24, align 4, !tbaa !8
  store i32 16842768, ptr %27, align 4
  %28 = getelementptr inbounds nuw i8, ptr %24, i64 8
  store ptr %18, ptr %28, align 8, !tbaa !4
  br label %29

29:                                               ; preds = %1, %lean_alloc_ctor.exit16
  %.0 = phi ptr [ %24, %lean_alloc_ctor.exit16 ], [ inttoptr (i64 1 to ptr), %1 ]
  ret ptr %.0
}